target datalayout = "e-m:e-p270:32:32-p271:32:32-p272:64:64-i64:64-i128:128-f80:128-n8:16:32:64-S128"
target triple = "x86_64-pc-linux-gnu"

@_ZN6icu_77L14gMaxNameLengthE = internal global i32 0, align 4

; Function Attrs: mustprogress uwtable
define i32 @uprv_getMaxCharNameLength_77() #0 {
  %1 = alloca i32, align 4
  %2 = alloca i32, align 4
  %3 = alloca i32, align 4
  call void @llvm.lifetime.start.p0(i64 4, ptr %2) #12
  store i32 0, ptr %2, align 4, !tbaa !13
  %4 = call noundef signext i8 @_ZN6icu_77L19calcNameSetsLengthsEP10UErrorCode(ptr noundef %2)
  %5 = icmp ne i8 %4, 0
  br i1 %5, label %6, label %8

6:                                                ; preds = %0
  %7 = load i32, ptr @_ZN6icu_77L14gMaxNameLengthE, align 4, !tbaa !3
  store i32 %7, ptr %1, align 4
  store i32 1, ptr %3, align 4
  br label %9

8:                                                ; preds = %0
  store i32 0, ptr %1, align 4
  store i32 1, ptr %3, align 4
  br label %9

9:                                                ; preds = %8, %6
  call void @llvm.lifetime.end.p0(i64 4, ptr %2) #12
  %10 = load i32, ptr %1, align 4
  ret i32 %10
}