; Function Attrs: mustprogress uwtable
define range(i32 0, -2147483648) i32 @uprv_getMaxCharNameLength_77() local_unnamed_addr #0 {
  %1 = alloca i32, align 4
  call void @llvm.lifetime.start.p0(i64 4, ptr nonnull %1) #11
  store i32 0, ptr %1, align 4, !tbaa !3
  %2 = call fastcc noundef signext i8 @_ZN6icu_77L19calcNameSetsLengthsEP10UErrorCode(ptr noundef %1)
  %.not = icmp eq i8 %2, 0
  %3 = load i32, ptr @_ZN6icu_77L14gMaxNameLengthE, align 4
  %.0 = select i1 %.not, i32 0, i32 %3
  call void @llvm.lifetime.end.p0(i64 4, ptr nonnull %1) #11
  ret i32 %.0
}